target datalayout = "e-m:e-p270:32:32-p271:32:32-p272:64:64-i64:64-i128:128-f80:128-n8:16:32:64-S128"
target triple = "x86_64-pc-linux-gnu"

%struct.pmix_class_t = type { ptr, ptr, ptr, ptr, i32, i32, ptr, ptr, i64 }
%struct.pmix_list_t = type { %struct.pmix_object_t, %struct.pmix_list_item_t, i64 }
%struct.pmix_object_t = type { %union.pthread_mutex_t, ptr, i32, %struct.pmix_tma }
%union.pthread_mutex_t = type { %struct.__pthread_mutex_s }
%struct.__pthread_mutex_s = type { i32, i32, i32, i32, i32, i16, i16, %struct.__pthread_internal_list }
%struct.__pthread_internal_list = type { ptr, ptr }
%struct.pmix_tma = type { ptr, ptr, ptr, ptr, ptr, ptr, ptr, ptr }
%struct.pmix_list_item_t = type { %struct.pmix_object_t, ptr, ptr, i32 }
%struct.seq_node_t = type { %struct.pmix_list_item_t, ptr, ptr }

@seq_node_t_class = global %struct.pmix_class_t { ptr @.str, ptr @pmix_list_item_t_class, ptr @sn_con, ptr @sn_des, i32 0, i32 0, ptr null, ptr null, i64 160 }, align 8
@pmix_class_init_epoch = external global i32, align 4
@.str.8 = private unnamed_addr constant [37 x i8] c"PRTE ERROR: %s in file %s at line %d\00", align 1
@.str.9 = private unnamed_addr constant [12 x i8] c"rmaps_seq.c\00", align 1
@.str.22 = private unnamed_addr constant [2 x i8] c"r\00", align 1

; Function Attrs: inlinehint nounwind uwtable
define internal void @pmix_obj_run_constructors(ptr noundef %0) #5 {
  %2 = alloca ptr, align 8
  %3 = alloca ptr, align 8
  store ptr %0, ptr %2, align 8, !tbaa !47
  call void @llvm.lifetime.start.p0(i64 8, ptr %3) #12
  %4 = load ptr, ptr %2, align 8, !tbaa !47
  %5 = getelementptr inbounds nuw %struct.pmix_object_t, ptr %4, i32 0, i32 1
  %6 = load ptr, ptr %5, align 8, !tbaa !44
  %7 = getelementptr inbounds nuw %struct.pmix_class_t, ptr %6, i32 0, i32 6
  %8 = load ptr, ptr %7, align 8, !tbaa !103
  store ptr %8, ptr %3, align 8, !tbaa !3
  br label %9

9:                                                ; preds = %13, %1
  %10 = load ptr, ptr %3, align 8, !tbaa !3
  %11 = load ptr, ptr %10, align 8, !tbaa !3
  %12 = icmp ne ptr null, %11
  br i1 %12, label %13, label %19

13:                                               ; preds = %9
  %14 = load ptr, ptr %3, align 8, !tbaa !3
  %15 = load ptr, ptr %14, align 8, !tbaa !3
  %16 = load ptr, ptr %2, align 8, !tbaa !47
  call void %15(ptr noundef %16)
  %17 = load ptr, ptr %3, align 8, !tbaa !3
  %18 = getelementptr inbounds nuw ptr, ptr %17, i32 1
  store ptr %18, ptr %3, align 8, !tbaa !3
  br label %9, !llvm.loop !104

19:                                               ; preds = %9
  call void @llvm.lifetime.end.p0(i64 8, ptr %3) #12
  ret void
}

; Function Attrs: inlinehint nounwind uwtable
define internal ptr @pmix_tma_malloc(ptr noundef %0, i64 noundef %1) #5 {
  %3 = alloca ptr, align 8
  %4 = alloca ptr, align 8
  %5 = alloca i64, align 8
  store ptr %0, ptr %4, align 8, !tbaa !93
  store i64 %1, ptr %5, align 8, !tbaa !126
  %6 = load ptr, ptr %4, align 8, !tbaa !93
  %7 = icmp ne ptr null, %6
  br i1 %7, label %8, label %15

8:                                                ; preds = %2
  %9 = load ptr, ptr %4, align 8, !tbaa !93
  %10 = getelementptr inbounds nuw %struct.pmix_tma, ptr %9, i32 0, i32 0
  %11 = load ptr, ptr %10, align 8, !tbaa !127
  %12 = load ptr, ptr %4, align 8, !tbaa !93
  %13 = load i64, ptr %5, align 8, !tbaa !126
  %14 = call ptr %11(ptr noundef %12, i64 noundef %13)
  store ptr %14, ptr %3, align 8
  br label %18

15:                                               ; preds = %2
  %16 = load i64, ptr %5, align 8, !tbaa !126
  %17 = call noalias ptr @malloc(i64 noundef %16) #16
  store ptr %17, ptr %3, align 8
  br label %18

18:                                               ; preds = %15, %8
  %19 = load ptr, ptr %3, align 8
  ret ptr %19
}

; Function Attrs: inlinehint nounwind uwtable
define internal void @_pmix_list_append(ptr noundef %0, ptr noundef %1) #5 {
  %3 = alloca ptr, align 8
  %4 = alloca ptr, align 8
  %5 = alloca ptr, align 8
  store ptr %0, ptr %3, align 8, !tbaa !61
  store ptr %1, ptr %4, align 8, !tbaa !46
  call void @llvm.lifetime.start.p0(i64 8, ptr %5) #12
  %6 = load ptr, ptr %3, align 8, !tbaa !61
  %7 = getelementptr inbounds nuw %struct.pmix_list_t, ptr %6, i32 0, i32 1
  store ptr %7, ptr %5, align 8, !tbaa !46
  %8 = load ptr, ptr %5, align 8, !tbaa !46
  %9 = getelementptr inbounds nuw %struct.pmix_list_item_t, ptr %8, i32 0, i32 2
  %10 = load ptr, ptr %9, align 8, !tbaa !115
  %11 = load ptr, ptr %4, align 8, !tbaa !46
  %12 = getelementptr inbounds nuw %struct.pmix_list_item_t, ptr %11, i32 0, i32 2
  store ptr %10, ptr %12, align 8, !tbaa !115
  %13 = load ptr, ptr %4, align 8, !tbaa !46
  %14 = load ptr, ptr %5, align 8, !tbaa !46
  %15 = getelementptr inbounds nuw %struct.pmix_list_item_t, ptr %14, i32 0, i32 2
  %16 = load ptr, ptr %15, align 8, !tbaa !115
  %17 = getelementptr inbounds nuw %struct.pmix_list_item_t, ptr %16, i32 0, i32 1
  store volatile ptr %13, ptr %17, align 8, !tbaa !71
  %18 = load ptr, ptr %5, align 8, !tbaa !46
  %19 = load ptr, ptr %4, align 8, !tbaa !46
  %20 = getelementptr inbounds nuw %struct.pmix_list_item_t, ptr %19, i32 0, i32 1
  store ptr %18, ptr %20, align 8, !tbaa !71
  %21 = load ptr, ptr %4, align 8, !tbaa !46
  %22 = load ptr, ptr %5, align 8, !tbaa !46
  %23 = getelementptr inbounds nuw %struct.pmix_list_item_t, ptr %22, i32 0, i32 2
  store ptr %21, ptr %23, align 8, !tbaa !115
  %24 = load ptr, ptr %3, align 8, !tbaa !61
  %25 = getelementptr inbounds nuw %struct.pmix_list_t, ptr %24, i32 0, i32 2
  %26 = load volatile i64, ptr %25, align 8, !tbaa !113
  %27 = add i64 %26, 1
  store volatile i64 %27, ptr %25, align 8, !tbaa !113
  call void @llvm.lifetime.end.p0(i64 8, ptr %5) #12
  ret void
}

; Function Attrs: inlinehint nounwind uwtable
define internal ptr @pmix_obj_new_tma(ptr noundef %0, ptr noundef %1) #5 {
  %3 = alloca ptr, align 8
  %4 = alloca ptr, align 8
  %5 = alloca ptr, align 8
  store ptr %0, ptr %3, align 8, !tbaa !120
  store ptr %1, ptr %4, align 8, !tbaa !93
  call void @llvm.lifetime.start.p0(i64 8, ptr %5) #12
  %6 = load ptr, ptr %4, align 8, !tbaa !93
  %7 = load ptr, ptr %3, align 8, !tbaa !120
  %8 = getelementptr inbounds nuw %struct.pmix_class_t, ptr %7, i32 0, i32 8
  %9 = load i64, ptr %8, align 8, !tbaa !121
  %10 = call ptr @pmix_tma_malloc(ptr noundef %6, i64 noundef %9)
  store ptr %10, ptr %5, align 8, !tbaa !47
  %11 = load i32, ptr @pmix_class_init_epoch, align 4, !tbaa !41
  %12 = load ptr, ptr %3, align 8, !tbaa !120
  %13 = getelementptr inbounds nuw %struct.pmix_class_t, ptr %12, i32 0, i32 4
  %14 = load i32, ptr %13, align 8, !tbaa !42
  %15 = icmp ne i32 %11, %14
  br i1 %15, label %16, label %18

16:                                               ; preds = %2
  %17 = load ptr, ptr %3, align 8, !tbaa !120
  call void @pmix_class_initialize(ptr noundef %17)
  br label %18

18:                                               ; preds = %16, %2
  %19 = load ptr, ptr %5, align 8, !tbaa !47
  %20 = icmp ne ptr null, %19
  br i1 %20, label %21, label %60

21:                                               ; preds = %18
  %22 = load ptr, ptr %5, align 8, !tbaa !47
  %23 = getelementptr inbounds nuw %struct.pmix_object_t, ptr %22, i32 0, i32 0
  %24 = call i32 @pthread_mutex_init(ptr noundef %23, ptr noundef null) #12
  %25 = load ptr, ptr %3, align 8, !tbaa !120
  %26 = load ptr, ptr %5, align 8, !tbaa !47
  %27 = getelementptr inbounds nuw %struct.pmix_object_t, ptr %26, i32 0, i32 1
  store ptr %25, ptr %27, align 8, !tbaa !44
  %28 = load ptr, ptr %5, align 8, !tbaa !47
  %29 = getelementptr inbounds nuw %struct.pmix_object_t, ptr %28, i32 0, i32 2
  store i32 1, ptr %29, align 8, !tbaa !45
  %30 = load ptr, ptr %4, align 8, !tbaa !93
  %31 = icmp eq ptr null, %30
  br i1 %31, label %32, label %54

32:                                               ; preds = %21
  %33 = load ptr, ptr %5, align 8, !tbaa !47
  %34 = getelementptr inbounds nuw %struct.pmix_object_t, ptr %33, i32 0, i32 3
  %35 = getelementptr inbounds nuw %struct.pmix_tma, ptr %34, i32 0, i32 0
  store ptr null, ptr %35, align 8, !tbaa !95
  %36 = load ptr, ptr %5, align 8, !tbaa !47
  %37 = getelementptr inbounds nuw %struct.pmix_object_t, ptr %36, i32 0, i32 3
  %38 = getelementptr inbounds nuw %struct.pmix_tma, ptr %37, i32 0, i32 1
  store ptr null, ptr %38, align 8, !tbaa !96
  %39 = load ptr, ptr %5, align 8, !tbaa !47
  %40 = getelementptr inbounds nuw %struct.pmix_object_t, ptr %39, i32 0, i32 3
  %41 = getelementptr inbounds nuw %struct.pmix_tma, ptr %40, i32 0, i32 2
  store ptr null, ptr %41, align 8, !tbaa !97
  %42 = load ptr, ptr %5, align 8, !tbaa !47
  %43 = getelementptr inbounds nuw %struct.pmix_object_t, ptr %42, i32 0, i32 3
  %44 = getelementptr inbounds nuw %struct.pmix_tma, ptr %43, i32 0, i32 3
  store ptr null, ptr %44, align 8, !tbaa !98
  %45 = load ptr, ptr %5, align 8, !tbaa !47
  %46 = getelementptr inbounds nuw %struct.pmix_object_t, ptr %45, i32 0, i32 3
  %47 = getelementptr inbounds nuw %struct.pmix_tma, ptr %46, i32 0, i32 5
  store ptr null, ptr %47, align 8, !tbaa !49
  %48 = load ptr, ptr %5, align 8, !tbaa !47
  %49 = getelementptr inbounds nuw %struct.pmix_object_t, ptr %48, i32 0, i32 3
  %50 = getelementptr inbounds nuw %struct.pmix_tma, ptr %49, i32 0, i32 6
  store ptr null, ptr %50, align 8, !tbaa !100
  %51 = load ptr, ptr %5, align 8, !tbaa !47
  %52 = getelementptr inbounds nuw %struct.pmix_object_t, ptr %51, i32 0, i32 3
  %53 = getelementptr inbounds nuw %struct.pmix_tma, ptr %52, i32 0, i32 7
  store ptr null, ptr %53, align 8, !tbaa !101
  br label %58

54:                                               ; preds = %21
  %55 = load ptr, ptr %5, align 8, !tbaa !47
  %56 = getelementptr inbounds nuw %struct.pmix_object_t, ptr %55, i32 0, i32 3
  %57 = load ptr, ptr %4, align 8, !tbaa !93
  call void @llvm.memcpy.p0.p0.i64(ptr align 8 %56, ptr align 8 %57, i64 64, i1 false), !tbaa.struct !102
  br label %58

58:                                               ; preds = %54, %32
  %59 = load ptr, ptr %5, align 8, !tbaa !47
  call void @pmix_obj_run_constructors(ptr noundef %59)
  br label %60

60:                                               ; preds = %58, %18
  %61 = load ptr, ptr %5, align 8, !tbaa !47
  call void @llvm.lifetime.end.p0(i64 8, ptr %5) #12
  ret ptr %61
}

; Function Attrs: nounwind uwtable
define internal i32 @process_file(ptr noundef %0, ptr noundef %1) #0 {
  %3 = alloca i32, align 4
  %4 = alloca ptr, align 8
  %5 = alloca ptr, align 8
  %6 = alloca ptr, align 8
  %7 = alloca ptr, align 8
  %8 = alloca ptr, align 8
  %9 = alloca ptr, align 8
  %10 = alloca ptr, align 8
  %11 = alloca ptr, align 8
  %12 = alloca i32, align 4
  store ptr %0, ptr %4, align 8, !tbaa !9
  store ptr %1, ptr %5, align 8, !tbaa !61
  call void @llvm.lifetime.start.p0(i64 8, ptr %6) #12
  store ptr null, ptr %6, align 8, !tbaa !9
  call void @llvm.lifetime.start.p0(i64 8, ptr %7) #12
  call void @llvm.lifetime.start.p0(i64 8, ptr %8) #12
  call void @llvm.lifetime.start.p0(i64 8, ptr %9) #12
  call void @llvm.lifetime.start.p0(i64 8, ptr %10) #12
  call void @llvm.lifetime.start.p0(i64 8, ptr %11) #12
  %13 = load ptr, ptr %4, align 8, !tbaa !9
  %14 = call noalias ptr @fopen(ptr noundef %13, ptr noundef @.str.22)
  store ptr %14, ptr %7, align 8, !tbaa !105
  %15 = load ptr, ptr %7, align 8, !tbaa !105
  %16 = icmp eq ptr null, %15
  br i1 %16, label %17, label %22

17:                                               ; preds = %2
  br label %18

18:                                               ; preds = %17
  %19 = call ptr @prte_strerror(i32 noundef -13)
  call void (i32, ptr, ...) @pmix_output(i32 noundef 0, ptr noundef @.str.8, ptr noundef %19, ptr noundef @.str.9, i32 noundef 437)
  br label %20

20:                                               ; preds = %18
  br label %21

21:                                               ; preds = %20
  store i32 -13, ptr %3, align 4
  store i32 1, ptr %12, align 4
  br label %101

22:                                               ; preds = %2
  br label %23

23:                                               ; preds = %91, %39, %31, %22
  %24 = load ptr, ptr %7, align 8, !tbaa !105
  %25 = call ptr @pmix_getline(ptr noundef %24)
  store ptr %25, ptr %6, align 8, !tbaa !9
  %26 = icmp ne ptr null, %25
  br i1 %26, label %27, label %98

27:                                               ; preds = %23
  %28 = load ptr, ptr %6, align 8, !tbaa !9
  %29 = call i64 @strlen(ptr noundef %28) #13
  %30 = icmp eq i64 0, %29
  br i1 %30, label %31, label %33

31:                                               ; preds = %27
  %32 = load ptr, ptr %6, align 8, !tbaa !9
  call void @free(ptr noundef %32) #12
  br label %23, !llvm.loop !107

33:                                               ; preds = %27
  %34 = load ptr, ptr %6, align 8, !tbaa !9
  %35 = getelementptr inbounds i8, ptr %34, i64 0
  %36 = load i8, ptr %35, align 1, !tbaa !108
  %37 = sext i8 %36 to i32
  %38 = icmp eq i32 35, %37
  br i1 %38, label %39, label %41

39:                                               ; preds = %33
  %40 = load ptr, ptr %6, align 8, !tbaa !9
  call void @free(ptr noundef %40) #12
  br label %23, !llvm.loop !107

41:                                               ; preds = %33
  %42 = call ptr @pmix_obj_new_tma(ptr noundef @seq_node_t_class, ptr noundef null)
  store ptr %42, ptr %8, align 8, !tbaa !3
  %43 = load ptr, ptr %6, align 8, !tbaa !9
  %44 = call ptr @strchr(ptr noundef %43, i32 noundef 32) #13
  store ptr %44, ptr %9, align 8, !tbaa !9
  %45 = icmp ne ptr null, %44
  br i1 %45, label %46, label %91

46:                                               ; preds = %41
  %47 = load ptr, ptr %9, align 8, !tbaa !9
  store i8 0, ptr %47, align 1, !tbaa !108
  %48 = load ptr, ptr %9, align 8, !tbaa !9
  %49 = getelementptr inbounds nuw i8, ptr %48, i32 1
  store ptr %49, ptr %9, align 8, !tbaa !9
  %50 = load ptr, ptr %9, align 8, !tbaa !9
  %51 = load ptr, ptr %9, align 8, !tbaa !9
  %52 = call i64 @strlen(ptr noundef %51) #13
  %53 = getelementptr inbounds nuw i8, ptr %50, i64 %52
  %54 = getelementptr inbounds i8, ptr %53, i64 -1
  store ptr %54, ptr %10, align 8, !tbaa !9
  br label %55

55:                                               ; preds = %73, %46
  %56 = load ptr, ptr %10, align 8, !tbaa !9
  %57 = load ptr, ptr %9, align 8, !tbaa !9
  %58 = icmp ugt ptr %56, %57
  br i1 %58, label %59, label %71

59:                                               ; preds = %55
  %60 = call ptr @__ctype_b_loc() #14
  %61 = load ptr, ptr %60, align 8, !tbaa !109
  %62 = load ptr, ptr %10, align 8, !tbaa !9
  %63 = load i8, ptr %62, align 1, !tbaa !108
  %64 = sext i8 %63 to i32
  %65 = sext i32 %64 to i64
  %66 = getelementptr inbounds i16, ptr %61, i64 %65
  %67 = load i16, ptr %66, align 2, !tbaa !111
  %68 = zext i16 %67 to i32
  %69 = and i32 %68, 8192
  %70 = icmp ne i32 %69, 0
  br label %71

71:                                               ; preds = %59, %55
  %72 = phi i1 [ false, %55 ], [ %70, %59 ]
  br i1 %72, label %73, label %76

73:                                               ; preds = %71
  %74 = load ptr, ptr %10, align 8, !tbaa !9
  %75 = getelementptr inbounds i8, ptr %74, i32 -1
  store ptr %75, ptr %10, align 8, !tbaa !9
  br label %55, !llvm.loop !112

76:                                               ; preds = %71
  %77 = load ptr, ptr %10, align 8, !tbaa !9
  %78 = getelementptr inbounds i8, ptr %77, i64 1
  store i8 0, ptr %78, align 1, !tbaa !108
  %79 = load ptr, ptr %9, align 8, !tbaa !9
  %80 = call ptr @strchr(ptr noundef %79, i32 noundef 32) #13
  store ptr %80, ptr %11, align 8, !tbaa !9
  %81 = icmp ne ptr null, %80
  br i1 %81, label %82, label %86

82:                                               ; preds = %76
  %83 = load ptr, ptr %11, align 8, !tbaa !9
  store i8 0, ptr %83, align 1, !tbaa !108
  %84 = load ptr, ptr %11, align 8, !tbaa !9
  %85 = getelementptr inbounds nuw i8, ptr %84, i32 1
  store ptr %85, ptr %11, align 8, !tbaa !9
  br label %86

86:                                               ; preds = %82, %76
  %87 = load ptr, ptr %9, align 8, !tbaa !9
  %88 = call noalias ptr @strdup(ptr noundef %87) #12
  %89 = load ptr, ptr %8, align 8, !tbaa !3
  %90 = getelementptr inbounds nuw %struct.seq_node_t, ptr %89, i32 0, i32 2
  store ptr %88, ptr %90, align 8, !tbaa !92
  br label %91

91:                                               ; preds = %86, %41
  %92 = load ptr, ptr %6, align 8, !tbaa !9
  %93 = load ptr, ptr %8, align 8, !tbaa !3
  %94 = getelementptr inbounds nuw %struct.seq_node_t, ptr %93, i32 0, i32 1
  store ptr %92, ptr %94, align 8, !tbaa !67
  %95 = load ptr, ptr %5, align 8, !tbaa !61
  %96 = load ptr, ptr %8, align 8, !tbaa !3
  %97 = getelementptr inbounds nuw %struct.seq_node_t, ptr %96, i32 0, i32 0
  call void @_pmix_list_append(ptr noundef %95, ptr noundef %97)
  br label %23, !llvm.loop !107

98:                                               ; preds = %23
  %99 = load ptr, ptr %7, align 8, !tbaa !105
  %100 = call i32 @fclose(ptr noundef %99)
  store i32 0, ptr %3, align 4
  store i32 1, ptr %12, align 4
  br label %101

101:                                              ; preds = %98, %21
  call void @llvm.lifetime.end.p0(i64 8, ptr %11) #12
  call void @llvm.lifetime.end.p0(i64 8, ptr %10) #12
  call void @llvm.lifetime.end.p0(i64 8, ptr %9) #12
  call void @llvm.lifetime.end.p0(i64 8, ptr %8) #12
  call void @llvm.lifetime.end.p0(i64 8, ptr %7) #12
  call void @llvm.lifetime.end.p0(i64 8, ptr %6) #12
  %102 = load i32, ptr %3, align 4
  ret i32 %102
}