; Function Attrs: nounwind uwtable
define internal fastcc range(i32 -13, 1) i32 @process_file(ptr noundef readonly captures(none) %0, ptr noundef nonnull %1) unnamed_addr #0 {
  %3 = tail call noalias ptr @fopen(ptr noundef %0, ptr noundef nonnull @.str.22)
  %4 = icmp eq ptr %3, null
  br i1 %4, label %9, label %.preheader

.preheader:                                       ; preds = %2
  %5 = tail call ptr @pmix_getline(ptr noundef nonnull %3) #15
  %.not43 = icmp eq ptr %5, null
  br i1 %.not43, label %._crit_edge, label %.lr.ph44

.lr.ph44:                                         ; preds = %.preheader
  %6 = getelementptr inbounds nuw i8, ptr %1, i64 120
  %7 = getelementptr inbounds nuw i8, ptr %1, i64 248
  %8 = getelementptr inbounds nuw i8, ptr %1, i64 264
  br label %11

9:                                                ; preds = %2
  %10 = tail call ptr @prte_strerror(i32 noundef -13) #15
  tail call void (i32, ptr, ...) @pmix_output(i32 noundef 0, ptr noundef nonnull @.str.8, ptr noundef %10, ptr noundef nonnull @.str.9, i32 noundef 437) #15
  br label %63

11:                                               ; preds = %.lr.ph44, %.backedge
  %12 = phi ptr [ %5, %.lr.ph44 ], [ %14, %.backedge ]
  %char0 = load i8, ptr %12, align 1
  switch i8 %char0, label %16 [
    i8 0, label %13
    i8 35, label %15
  ]

13:                                               ; preds = %11
  tail call void @free(ptr noundef nonnull %12) #15
  br label %.backedge

.backedge:                                        ; preds = %13, %15, %54
  %14 = tail call ptr @pmix_getline(ptr noundef nonnull %3) #15
  %.not = icmp eq ptr %14, null
  br i1 %.not, label %._crit_edge, label %11, !llvm.loop !92

15:                                               ; preds = %11
  tail call void @free(ptr noundef nonnull %12) #15
  br label %.backedge

16:                                               ; preds = %11
  %17 = load i64, ptr getelementptr inbounds nuw (i8, ptr @seq_node_t_class, i64 56), align 8, !tbaa !64
  %18 = tail call noalias noundef ptr @malloc(i64 noundef %17) #20
  %19 = load i32, ptr @pmix_class_init_epoch, align 4, !tbaa !37
  %20 = load i32, ptr getelementptr inbounds nuw (i8, ptr @seq_node_t_class, i64 32), align 8, !tbaa !38
  %.not.i = icmp eq i32 %19, %20
  br i1 %.not.i, label %22, label %21

21:                                               ; preds = %16
  tail call void @pmix_class_initialize(ptr noundef nonnull @seq_node_t_class) #15
  br label %22

22:                                               ; preds = %21, %16
  %.not22.i = icmp eq ptr %18, null
  br i1 %.not22.i, label %pmix_obj_new_tma.exit, label %23

23:                                               ; preds = %22
  %24 = tail call i32 @pthread_mutex_init(ptr noundef nonnull %18, ptr noundef null) #15
  %25 = getelementptr inbounds nuw i8, ptr %18, i64 40
  store ptr @seq_node_t_class, ptr %25, align 8, !tbaa !40
  %26 = getelementptr inbounds nuw i8, ptr %18, i64 48
  store i32 1, ptr %26, align 8, !tbaa !41
  %27 = getelementptr inbounds nuw i8, ptr %18, i64 56
  %28 = getelementptr inbounds nuw i8, ptr %18, i64 96
  tail call void @llvm.memset.p0.i64(ptr noundef nonnull align 8 dereferenceable(32) %27, i8 0, i64 32, i1 false)
  tail call void @llvm.memset.p0.i64(ptr noundef nonnull align 8 dereferenceable(24) %28, i8 0, i64 24, i1 false)
  %29 = load ptr, ptr getelementptr inbounds nuw (i8, ptr @seq_node_t_class, i64 40), align 8, !tbaa !42
  %30 = load ptr, ptr %29, align 8, !tbaa !43
  %.not6.i.i = icmp eq ptr %30, null
  br i1 %.not6.i.i, label %pmix_obj_new_tma.exit, label %.lr.ph.i.i

.lr.ph.i.i:                                       ; preds = %23, %.lr.ph.i.i
  %31 = phi ptr [ %33, %.lr.ph.i.i ], [ %30, %23 ]
  %.07.i.i = phi ptr [ %32, %.lr.ph.i.i ], [ %29, %23 ]
  tail call void %31(ptr noundef nonnull %18) #15
  %32 = getelementptr inbounds nuw i8, ptr %.07.i.i, i64 8
  %33 = load ptr, ptr %32, align 8, !tbaa !43
  %.not.i.i = icmp eq ptr %33, null
  br i1 %.not.i.i, label %pmix_obj_new_tma.exit, label %.lr.ph.i.i, !llvm.loop !44

pmix_obj_new_tma.exit:                            ; preds = %.lr.ph.i.i, %22, %23
  %34 = tail call ptr @strchr(ptr noundef nonnull dereferenceable(1) %12, i32 noundef 32) #16
  %.not31 = icmp eq ptr %34, null
  br i1 %.not31, label %54, label %35

35:                                               ; preds = %pmix_obj_new_tma.exit
  store i8 0, ptr %34, align 1, !tbaa !93
  %.ptr33 = getelementptr i8, ptr %34, i64 1
  %36 = tail call i64 @strlen(ptr noundef nonnull dereferenceable(1) %.ptr33) #16
  %.0.ptr38 = getelementptr inbounds i8, ptr %34, i64 %36
  %37 = icmp sgt i64 %36, 1
  br i1 %37, label %.lr.ph, label %.critedge

.lr.ph:                                           ; preds = %35
  %38 = tail call ptr @__ctype_b_loc() #17
  %39 = load ptr, ptr %38, align 8, !tbaa !94
  br label %42

40:                                               ; preds = %42
  %.0.add = add nsw i64 %.0.idx39, -1
  %.0.ptr = getelementptr inbounds i8, ptr %34, i64 %.0.add
  %41 = icmp sgt i64 %.0.idx39, 2
  br i1 %41, label %42, label %.critedge, !llvm.loop !96

42:                                               ; preds = %.lr.ph, %40
  %.0.ptr40 = phi ptr [ %.0.ptr38, %.lr.ph ], [ %.0.ptr, %40 ]
  %.0.idx39 = phi i64 [ %36, %.lr.ph ], [ %.0.add, %40 ]
  %43 = load i8, ptr %.0.ptr40, align 1, !tbaa !93
  %44 = sext i8 %43 to i64
  %45 = getelementptr inbounds i16, ptr %39, i64 %44
  %46 = load i16, ptr %45, align 2, !tbaa !97
  %47 = and i16 %46, 8192
  %.not36 = icmp eq i16 %47, 0
  br i1 %.not36, label %.critedge, label %40

.critedge:                                        ; preds = %42, %40, %35
  %.0.ptr.lcssa = phi ptr [ %.0.ptr38, %35 ], [ %.ptr33, %40 ], [ %.0.ptr40, %42 ]
  %48 = getelementptr inbounds nuw i8, ptr %.0.ptr.lcssa, i64 1
  store i8 0, ptr %48, align 1, !tbaa !93
  %49 = tail call ptr @strchr(ptr noundef nonnull dereferenceable(1) %.ptr33, i32 noundef 32) #16
  %.not37 = icmp eq ptr %49, null
  br i1 %.not37, label %51, label %50

50:                                               ; preds = %.critedge
  store i8 0, ptr %49, align 1, !tbaa !93
  br label %51

51:                                               ; preds = %50, %.critedge
  %52 = tail call noalias ptr @strdup(ptr noundef nonnull %.ptr33) #15
  %53 = getelementptr inbounds nuw i8, ptr %18, i64 152
  store ptr %52, ptr %53, align 8, !tbaa !91
  br label %54

54:                                               ; preds = %51, %pmix_obj_new_tma.exit
  %55 = getelementptr inbounds nuw i8, ptr %18, i64 144
  store ptr %12, ptr %55, align 8, !tbaa !69
  %56 = load ptr, ptr %7, align 8, !tbaa !48
  %57 = getelementptr inbounds nuw i8, ptr %18, i64 128
  store ptr %56, ptr %57, align 8, !tbaa !48
  %58 = getelementptr inbounds nuw i8, ptr %56, i64 120
  store volatile ptr %18, ptr %58, align 8, !tbaa !49
  %59 = getelementptr inbounds nuw i8, ptr %18, i64 120
  store ptr %6, ptr %59, align 8, !tbaa !49
  store ptr %18, ptr %7, align 8, !tbaa !48
  %60 = load volatile i64, ptr %8, align 8, !tbaa !46
  %61 = add i64 %60, 1
  store volatile i64 %61, ptr %8, align 8, !tbaa !46
  br label %.backedge

._crit_edge:                                      ; preds = %.backedge, %.preheader
  %62 = tail call i32 @fclose(ptr noundef nonnull %3)
  br label %63

63:                                               ; preds = %._crit_edge, %9
  %.027 = phi i32 [ -13, %9 ], [ 0, %._crit_edge ]
  ret i32 %.027
}